; ModuleID = '1/2023.c'
source_filename = "1/2023.c"
target datalayout = "e-m:e-p270:32:32-p271:32:32-p272:64:64-i64:64-f80:128-n8:16:32:64-S128"
target triple = "x86_64-pc-linux-gnu"

@.str = private unnamed_addr constant [3 x i8] c"%d\00", align 1
@.str.1 = private unnamed_addr constant [4 x i8] c"%d\0A\00", align 1

; Function Attrs: noinline nounwind uwtable
define dso_local i32 @fun(i32 %0, i32 %1, i32 %2) #0 {
  %4 = alloca i32, align 4
  %5 = alloca i32, align 4
  %6 = alloca i32, align 4
  %7 = alloca i32, align 4
  store i32 %0, i32* %4, align 4
  store i32 %1, i32* %5, align 4
  store i32 %2, i32* %6, align 4
  %8 = load i32, i32* %4, align 4
  store i32 %8, i32* %7, align 4
  br label %9

9:                                                ; preds = %31, %3
  %10 = load i32, i32* %7, align 4
  %11 = sitofp i32 %10 to double
  %12 = load i32, i32* %5, align 4
  %13 = sitofp i32 %12 to double
  %14 = call double @sqrt(double %13) #3
  %15 = fcmp ole double %11, %14
  br i1 %15, label %16, label %34

16:                                               ; preds = %9
  %17 = load i32, i32* %5, align 4
  %18 = load i32, i32* %7, align 4
  %19 = srem i32 %17, %18
  %20 = icmp eq i32 %19, 0
  br i1 %20, label %21, label %30

21:                                               ; preds = %16
  %22 = load i32, i32* %6, align 4
  %23 = add nsw i32 %22, 1
  store i32 %23, i32* %6, align 4
  %24 = load i32, i32* %7, align 4
  %25 = load i32, i32* %5, align 4
  %26 = load i32, i32* %7, align 4
  %27 = sdiv i32 %25, %26
  %28 = load i32, i32* %6, align 4
  %29 = call i32 @fun(i32 %24, i32 %27, i32 %28)
  store i32 %29, i32* %6, align 4
  br label %30

30:                                               ; preds = %21, %16
  br label %31

31:                                               ; preds = %30
  %32 = load i32, i32* %7, align 4
  %33 = add nsw i32 %32, 1
  store i32 %33, i32* %7, align 4
  br label %9

34:                                               ; preds = %9
  %35 = load i32, i32* %6, align 4
  ret i32 %35
}

; Function Attrs: nounwind
declare dso_local double @sqrt(double) #1

; Function Attrs: noinline nounwind uwtable
define dso_local i32 @main() #0 {
  %1 = alloca i32, align 4
  %2 = alloca i32, align 4
  %3 = alloca i32, align 4
  %4 = alloca i32, align 4
  %5 = alloca i32, align 4
  %6 = alloca i32, align 4
  store i32 0, i32* %1, align 4
  %7 = call i32 (i8*, ...) @__isoc99_scanf(i8* getelementptr inbounds ([3 x i8], [3 x i8]* @.str, i64 0, i64 0), i32* %3)
  store i32 0, i32* %6, align 4
  br label %8

8:                                                ; preds = %42, %0
  %9 = load i32, i32* %6, align 4
  %10 = load i32, i32* %3, align 4
  %11 = icmp slt i32 %9, %10
  br i1 %11, label %12, label %45

12:                                               ; preds = %8
  %13 = call i32 (i8*, ...) @__isoc99_scanf(i8* getelementptr inbounds ([3 x i8], [3 x i8]* @.str, i64 0, i64 0), i32* %4)
  store i32 1, i32* %2, align 4
  store i32 2, i32* %5, align 4
  br label %14

14:                                               ; preds = %36, %12
  %15 = load i32, i32* %5, align 4
  %16 = sitofp i32 %15 to double
  %17 = load i32, i32* %4, align 4
  %18 = sitofp i32 %17 to double
  %19 = call double @sqrt(double %18) #3
  %20 = fcmp olt double %16, %19
  br i1 %20, label %21, label %39

21:                                               ; preds = %14
  %22 = load i32, i32* %4, align 4
  %23 = load i32, i32* %5, align 4
  %24 = srem i32 %22, %23
  %25 = icmp eq i32 %24, 0
  br i1 %25, label %26, label %35

26:                                               ; preds = %21
  %27 = load i32, i32* %2, align 4
  %28 = add nsw i32 %27, 1
  store i32 %28, i32* %2, align 4
  %29 = load i32, i32* %5, align 4
  %30 = load i32, i32* %4, align 4
  %31 = load i32, i32* %5, align 4
  %32 = sdiv i32 %30, %31
  %33 = load i32, i32* %2, align 4
  %34 = call i32 @fun(i32 %29, i32 %32, i32 %33)
  store i32 %34, i32* %2, align 4
  br label %35

35:                                               ; preds = %26, %21
  br label %36

36:                                               ; preds = %35
  %37 = load i32, i32* %5, align 4
  %38 = add nsw i32 %37, 1
  store i32 %38, i32* %5, align 4
  br label %14

39:                                               ; preds = %14
  %40 = load i32, i32* %2, align 4
  %41 = call i32 (i8*, ...) @printf(i8* getelementptr inbounds ([4 x i8], [4 x i8]* @.str.1, i64 0, i64 0), i32 %40)
  br label %42

42:                                               ; preds = %39
  %43 = load i32, i32* %6, align 4
  %44 = add nsw i32 %43, 1
  store i32 %44, i32* %6, align 4
  br label %8

45:                                               ; preds = %8
  ret i32 0
}

declare dso_local i32 @__isoc99_scanf(i8*, ...) #2

declare dso_local i32 @printf(i8*, ...) #2


!llvm.module.flags = !{!0}
!llvm.ident = !{!1}

!0 = !{i32 1, !"wchar_size", i32 4}
!1 = !{!"clang version 10.0.0-4ubuntu1 "}
